target datalayout = "e-m:e-p270:32:32-p271:32:32-p272:64:64-i64:64-i128:128-f80:128-n8:16:32:64-S128"
target triple = "x86_64-pc-linux-gnu"

@.str = private unnamed_addr constant [3 x i8] c"%s\00", align 1
@.str.1 = private unnamed_addr constant [5 x i8] c"'\\''\00", align 1
@.str.2 = private unnamed_addr constant [6 x i8] c"&amp;\00", align 1
@.str.3 = private unnamed_addr constant [5 x i8] c"&lt;\00", align 1
@.str.4 = private unnamed_addr constant [5 x i8] c"&gt;\00", align 1
@.str.5 = private unnamed_addr constant [7 x i8] c"&apos;\00", align 1
@.str.6 = private unnamed_addr constant [7 x i8] c"&quot;\00", align 1
@.str.7 = private unnamed_addr constant [5 x i8] c" \0A\09\0D\00", align 1
@.str.8 = private unnamed_addr constant [3 x i8] c"'\\\00", align 1

; Function Attrs: nounwind uwtable
define void @av_bprint_escape(ptr noundef %0, ptr noundef %1, ptr noundef %2, i32 noundef %3, i32 noundef %4) #0 {
  %6 = alloca ptr, align 8
  %7 = alloca ptr, align 8
  %8 = alloca ptr, align 8
  %9 = alloca i32, align 4
  %10 = alloca i32, align 4
  %11 = alloca ptr, align 8
  %12 = alloca i32, align 4
  %13 = alloca i32, align 4
  %14 = alloca i32, align 4
  %15 = alloca i32, align 4
  store ptr %0, ptr %6, align 8, !tbaa !4
  store ptr %1, ptr %7, align 8, !tbaa !18
  store ptr %2, ptr %8, align 8, !tbaa !18
  store i32 %3, ptr %9, align 4, !tbaa !9
  store i32 %4, ptr %10, align 4, !tbaa !9
  call void @llvm.lifetime.start.p0(i64 8, ptr %11) #9
  %16 = load ptr, ptr %7, align 8, !tbaa !18
  store ptr %16, ptr %11, align 8, !tbaa !18
  %17 = load i32, ptr %9, align 4, !tbaa !9
  %18 = icmp eq i32 %17, 0
  br i1 %18, label %19, label %20

19:                                               ; preds = %5
  store i32 1, ptr %9, align 4, !tbaa !9
  br label %20

20:                                               ; preds = %19, %5
  %21 = load i32, ptr %9, align 4, !tbaa !9
  switch i32 %21, label %84 [
    i32 2, label %22
    i32 3, label %45
  ]

22:                                               ; preds = %20
  %23 = load ptr, ptr %6, align 8, !tbaa !4
  call void @av_bprint_chars(ptr noundef %23, i8 noundef signext 39, i32 noundef 1)
  br label %24

24:                                               ; preds = %40, %22
  %25 = load ptr, ptr %7, align 8, !tbaa !18
  %26 = load i8, ptr %25, align 1, !tbaa !17
  %27 = icmp ne i8 %26, 0
  br i1 %27, label %28, label %43

28:                                               ; preds = %24
  %29 = load ptr, ptr %7, align 8, !tbaa !18
  %30 = load i8, ptr %29, align 1, !tbaa !17
  %31 = sext i8 %30 to i32
  %32 = icmp eq i32 %31, 39
  br i1 %32, label %33, label %35

33:                                               ; preds = %28
  %34 = load ptr, ptr %6, align 8, !tbaa !4
  call void (ptr, ptr, ...) @av_bprintf(ptr noundef %34, ptr noundef @.str.1)
  br label %39

35:                                               ; preds = %28
  %36 = load ptr, ptr %6, align 8, !tbaa !4
  %37 = load ptr, ptr %7, align 8, !tbaa !18
  %38 = load i8, ptr %37, align 1, !tbaa !17
  call void @av_bprint_chars(ptr noundef %36, i8 noundef signext %38, i32 noundef 1)
  br label %39

39:                                               ; preds = %35, %33
  br label %40

40:                                               ; preds = %39
  %41 = load ptr, ptr %7, align 8, !tbaa !18
  %42 = getelementptr inbounds nuw i8, ptr %41, i32 1
  store ptr %42, ptr %7, align 8, !tbaa !18
  br label %24, !llvm.loop !30

43:                                               ; preds = %24
  %44 = load ptr, ptr %6, align 8, !tbaa !4
  call void @av_bprint_chars(ptr noundef %44, i8 noundef signext 39, i32 noundef 1)
  br label %167

45:                                               ; preds = %20
  br label %46

46:                                               ; preds = %80, %45
  %47 = load ptr, ptr %7, align 8, !tbaa !18
  %48 = load i8, ptr %47, align 1, !tbaa !17
  %49 = icmp ne i8 %48, 0
  br i1 %49, label %50, label %83

50:                                               ; preds = %46
  %51 = load ptr, ptr %7, align 8, !tbaa !18
  %52 = load i8, ptr %51, align 1, !tbaa !17
  %53 = sext i8 %52 to i32
  switch i32 %53, label %75 [
    i32 38, label %54
    i32 60, label %56
    i32 62, label %58
    i32 39, label %60
    i32 34, label %67
  ]

54:                                               ; preds = %50
  %55 = load ptr, ptr %6, align 8, !tbaa !4
  call void (ptr, ptr, ...) @av_bprintf(ptr noundef %55, ptr noundef @.str, ptr noundef @.str.2)
  br label %79

56:                                               ; preds = %50
  %57 = load ptr, ptr %6, align 8, !tbaa !4
  call void (ptr, ptr, ...) @av_bprintf(ptr noundef %57, ptr noundef @.str, ptr noundef @.str.3)
  br label %79

58:                                               ; preds = %50
  %59 = load ptr, ptr %6, align 8, !tbaa !4
  call void (ptr, ptr, ...) @av_bprintf(ptr noundef %59, ptr noundef @.str, ptr noundef @.str.4)
  br label %79

60:                                               ; preds = %50
  %61 = load i32, ptr %10, align 4, !tbaa !9
  %62 = and i32 %61, 4
  %63 = icmp ne i32 %62, 0
  br i1 %63, label %65, label %64

64:                                               ; preds = %60
  br label %74

65:                                               ; preds = %60
  %66 = load ptr, ptr %6, align 8, !tbaa !4
  call void (ptr, ptr, ...) @av_bprintf(ptr noundef %66, ptr noundef @.str, ptr noundef @.str.5)
  br label %79

67:                                               ; preds = %50
  %68 = load i32, ptr %10, align 4, !tbaa !9
  %69 = and i32 %68, 8
  %70 = icmp ne i32 %69, 0
  br i1 %70, label %72, label %71

71:                                               ; preds = %67
  br label %74

72:                                               ; preds = %67
  %73 = load ptr, ptr %6, align 8, !tbaa !4
  call void (ptr, ptr, ...) @av_bprintf(ptr noundef %73, ptr noundef @.str, ptr noundef @.str.6)
  br label %79

74:                                               ; preds = %71, %64
  br label %75

75:                                               ; preds = %50, %74
  %76 = load ptr, ptr %6, align 8, !tbaa !4
  %77 = load ptr, ptr %7, align 8, !tbaa !18
  %78 = load i8, ptr %77, align 1, !tbaa !17
  call void @av_bprint_chars(ptr noundef %76, i8 noundef signext %78, i32 noundef 1)
  br label %79

79:                                               ; preds = %75, %72, %65, %58, %56, %54
  br label %80

80:                                               ; preds = %79
  %81 = load ptr, ptr %7, align 8, !tbaa !18
  %82 = getelementptr inbounds nuw i8, ptr %81, i32 1
  store ptr %82, ptr %7, align 8, !tbaa !18
  br label %46, !llvm.loop !32

83:                                               ; preds = %46
  br label %167

84:                                               ; preds = %20
  br label %85

85:                                               ; preds = %163, %84
  %86 = load ptr, ptr %7, align 8, !tbaa !18
  %87 = load i8, ptr %86, align 1, !tbaa !17
  %88 = icmp ne i8 %87, 0
  br i1 %88, label %89, label %166

89:                                               ; preds = %85
  call void @llvm.lifetime.start.p0(i64 4, ptr %12) #9
  %90 = load ptr, ptr %7, align 8, !tbaa !18
  %91 = load ptr, ptr %11, align 8, !tbaa !18
  %92 = icmp eq ptr %90, %91
  br i1 %92, label %99, label %93

93:                                               ; preds = %89
  %94 = load ptr, ptr %7, align 8, !tbaa !18
  %95 = getelementptr inbounds i8, ptr %94, i64 1
  %96 = load i8, ptr %95, align 1, !tbaa !17
  %97 = icmp ne i8 %96, 0
  %98 = xor i1 %97, true
  br label %99

99:                                               ; preds = %93, %89
  %100 = phi i1 [ true, %89 ], [ %98, %93 ]
  %101 = zext i1 %100 to i32
  store i32 %101, ptr %12, align 4, !tbaa !9
  call void @llvm.lifetime.start.p0(i64 4, ptr %13) #9
  %102 = load ptr, ptr %7, align 8, !tbaa !18
  %103 = load i8, ptr %102, align 1, !tbaa !17
  %104 = sext i8 %103 to i32
  %105 = call ptr @strchr(ptr noundef @.str.7, i32 noundef %104) #10
  %106 = icmp ne ptr %105, null
  %107 = xor i1 %106, true
  %108 = xor i1 %107, true
  %109 = zext i1 %108 to i32
  store i32 %109, ptr %13, align 4, !tbaa !9
  call void @llvm.lifetime.start.p0(i64 4, ptr %14) #9
  %110 = load ptr, ptr %8, align 8, !tbaa !18
  %111 = icmp ne ptr %110, null
  br i1 %111, label %112, label %119

112:                                              ; preds = %99
  %113 = load ptr, ptr %8, align 8, !tbaa !18
  %114 = load ptr, ptr %7, align 8, !tbaa !18
  %115 = load i8, ptr %114, align 1, !tbaa !17
  %116 = sext i8 %115 to i32
  %117 = call ptr @strchr(ptr noundef %113, i32 noundef %116) #10
  %118 = icmp ne ptr %117, null
  br label %119

119:                                              ; preds = %112, %99
  %120 = phi i1 [ false, %99 ], [ %118, %112 ]
  %121 = zext i1 %120 to i32
  store i32 %121, ptr %14, align 4, !tbaa !9
  call void @llvm.lifetime.start.p0(i64 4, ptr %15) #9
  %122 = load i32, ptr %14, align 4, !tbaa !9
  %123 = icmp ne i32 %122, 0
  br i1 %123, label %139, label %124

124:                                              ; preds = %119
  %125 = load ptr, ptr %7, align 8, !tbaa !18
  %126 = load i8, ptr %125, align 1, !tbaa !17
  %127 = sext i8 %126 to i32
  %128 = call ptr @strchr(ptr noundef @.str.8, i32 noundef %127) #10
  %129 = icmp ne ptr %128, null
  br i1 %129, label %139, label %130

130:                                              ; preds = %124
  %131 = load i32, ptr %13, align 4, !tbaa !9
  %132 = icmp ne i32 %131, 0
  br i1 %132, label %133, label %137

133:                                              ; preds = %130
  %134 = load i32, ptr %10, align 4, !tbaa !9
  %135 = and i32 %134, 1
  %136 = icmp ne i32 %135, 0
  br label %137

137:                                              ; preds = %133, %130
  %138 = phi i1 [ false, %130 ], [ %136, %133 ]
  br label %139

139:                                              ; preds = %137, %124, %119
  %140 = phi i1 [ true, %124 ], [ true, %119 ], [ %138, %137 ]
  %141 = zext i1 %140 to i32
  store i32 %141, ptr %15, align 4, !tbaa !9
  %142 = load i32, ptr %14, align 4, !tbaa !9
  %143 = icmp ne i32 %142, 0
  br i1 %143, label %157, label %144

144:                                              ; preds = %139
  %145 = load i32, ptr %10, align 4, !tbaa !9
  %146 = and i32 %145, 2
  %147 = icmp ne i32 %146, 0
  br i1 %147, label %159, label %148

148:                                              ; preds = %144
  %149 = load i32, ptr %15, align 4, !tbaa !9
  %150 = icmp ne i32 %149, 0
  br i1 %150, label %157, label %151

151:                                              ; preds = %148
  %152 = load i32, ptr %13, align 4, !tbaa !9
  %153 = icmp ne i32 %152, 0
  br i1 %153, label %154, label %159

154:                                              ; preds = %151
  %155 = load i32, ptr %12, align 4, !tbaa !9
  %156 = icmp ne i32 %155, 0
  br i1 %156, label %157, label %159

157:                                              ; preds = %154, %148, %139
  %158 = load ptr, ptr %6, align 8, !tbaa !4
  call void @av_bprint_chars(ptr noundef %158, i8 noundef signext 92, i32 noundef 1)
  br label %159

159:                                              ; preds = %157, %154, %151, %144
  %160 = load ptr, ptr %6, align 8, !tbaa !4
  %161 = load ptr, ptr %7, align 8, !tbaa !18
  %162 = load i8, ptr %161, align 1, !tbaa !17
  call void @av_bprint_chars(ptr noundef %160, i8 noundef signext %162, i32 noundef 1)
  call void @llvm.lifetime.end.p0(i64 4, ptr %15) #9
  call void @llvm.lifetime.end.p0(i64 4, ptr %14) #9
  call void @llvm.lifetime.end.p0(i64 4, ptr %13) #9
  call void @llvm.lifetime.end.p0(i64 4, ptr %12) #9
  br label %163

163:                                              ; preds = %159
  %164 = load ptr, ptr %7, align 8, !tbaa !18
  %165 = getelementptr inbounds nuw i8, ptr %164, i32 1
  store ptr %165, ptr %7, align 8, !tbaa !18
  br label %85, !llvm.loop !33

166:                                              ; preds = %85
  br label %167

167:                                              ; preds = %166, %83, %43
  call void @llvm.lifetime.end.p0(i64 8, ptr %11) #9
  ret void
}