; Function Attrs: nounwind uwtable
define void @av_bprint_escape(ptr noundef captures(address) %0, ptr noundef readonly captures(address) %1, ptr noundef readonly %2, i32 noundef %3, i32 noundef %4) local_unnamed_addr #0 {
  %spec.store.select = tail call i32 @llvm.umax.i32(i32 %3, i32 1)
  switch i32 %spec.store.select, label %.preheader [
    i32 2, label %27
    i32 3, label %.preheader62
  ]

.preheader62:                                     ; preds = %5
  %6 = and i32 %4, 8
  %.not47 = icmp eq i32 %6, 0
  %7 = and i32 %4, 4
  %.not48 = icmp eq i32 %7, 0
  br i1 %.not47, label %.preheader62.split.us, label %.preheader62.split

.preheader62.split.us:                            ; preds = %.preheader62
  br i1 %.not48, label %.preheader62.split.us.split.us, label %.preheader62.split.us.split

.preheader62.split.us.split.us:                   ; preds = %.preheader62.split.us, %13
  %.1.us.us = phi ptr [ %14, %13 ], [ %1, %.preheader62.split.us ]
  %8 = load i8, ptr %.1.us.us, align 1, !tbaa !14
  switch i8 %8, label %12 [
    i8 0, label %.loopexit
    i8 38, label %11
    i8 60, label %10
    i8 62, label %9
  ]

9:                                                ; preds = %.preheader62.split.us.split.us
  tail call void (ptr, ptr, ...) @av_bprintf(ptr noundef %0, ptr noundef nonnull @.str, ptr noundef nonnull @.str.4)
  br label %13

10:                                               ; preds = %.preheader62.split.us.split.us
  tail call void (ptr, ptr, ...) @av_bprintf(ptr noundef %0, ptr noundef nonnull @.str, ptr noundef nonnull @.str.3)
  br label %13

11:                                               ; preds = %.preheader62.split.us.split.us
  tail call void (ptr, ptr, ...) @av_bprintf(ptr noundef %0, ptr noundef nonnull @.str, ptr noundef nonnull @.str.2)
  br label %13

12:                                               ; preds = %.preheader62.split.us.split.us
  tail call void @av_bprint_chars(ptr noundef %0, i8 noundef signext %8, i32 noundef 1)
  br label %13

13:                                               ; preds = %12, %11, %10, %9
  %14 = getelementptr inbounds nuw i8, ptr %.1.us.us, i64 1
  br label %.preheader62.split.us.split.us, !llvm.loop !17

.preheader62.split.us.split:                      ; preds = %.preheader62.split.us, %21
  %.1.us = phi ptr [ %22, %21 ], [ %1, %.preheader62.split.us ]
  %15 = load i8, ptr %.1.us, align 1, !tbaa !14
  switch i8 %15, label %20 [
    i8 0, label %.loopexit
    i8 38, label %19
    i8 60, label %18
    i8 62, label %17
    i8 39, label %16
  ]

16:                                               ; preds = %.preheader62.split.us.split
  tail call void (ptr, ptr, ...) @av_bprintf(ptr noundef %0, ptr noundef nonnull @.str, ptr noundef nonnull @.str.5)
  br label %21

17:                                               ; preds = %.preheader62.split.us.split
  tail call void (ptr, ptr, ...) @av_bprintf(ptr noundef %0, ptr noundef nonnull @.str, ptr noundef nonnull @.str.4)
  br label %21

18:                                               ; preds = %.preheader62.split.us.split
  tail call void (ptr, ptr, ...) @av_bprintf(ptr noundef %0, ptr noundef nonnull @.str, ptr noundef nonnull @.str.3)
  br label %21

19:                                               ; preds = %.preheader62.split.us.split
  tail call void (ptr, ptr, ...) @av_bprintf(ptr noundef %0, ptr noundef nonnull @.str, ptr noundef nonnull @.str.2)
  br label %21

20:                                               ; preds = %.preheader62.split.us.split
  tail call void @av_bprint_chars(ptr noundef %0, i8 noundef signext %15, i32 noundef 1)
  br label %21

21:                                               ; preds = %20, %19, %18, %17, %16
  %22 = getelementptr inbounds nuw i8, ptr %.1.us, i64 1
  br label %.preheader62.split.us.split, !llvm.loop !17

.preheader:                                       ; preds = %5
  %23 = load i8, ptr %1, align 1, !tbaa !14
  %.not5064 = icmp eq i8 %23, 0
  br i1 %.not5064, label %.loopexit, label %.lr.ph

.lr.ph:                                           ; preds = %.preheader
  %.not53 = icmp eq ptr %2, null
  %24 = and i32 %4, 1
  %25 = icmp ne i32 %24, 0
  %26 = and i32 %4, 2
  %.not55 = icmp eq i32 %26, 0
  br label %45

27:                                               ; preds = %5
  tail call void @av_bprint_chars(ptr noundef %0, i8 noundef signext 39, i32 noundef 1)
  br label %28

28:                                               ; preds = %32, %27
  %.0 = phi ptr [ %1, %27 ], [ %33, %32 ]
  %29 = load i8, ptr %.0, align 1, !tbaa !14
  switch i8 %29, label %31 [
    i8 0, label %34
    i8 39, label %30
  ]

30:                                               ; preds = %28
  tail call void (ptr, ptr, ...) @av_bprintf(ptr noundef %0, ptr noundef nonnull @.str.1)
  br label %32

31:                                               ; preds = %28
  tail call void @av_bprint_chars(ptr noundef %0, i8 noundef signext %29, i32 noundef 1)
  br label %32

32:                                               ; preds = %30, %31
  %33 = getelementptr inbounds nuw i8, ptr %.0, i64 1
  br label %28, !llvm.loop !19

34:                                               ; preds = %28
  tail call void @av_bprint_chars(ptr noundef %0, i8 noundef signext 39, i32 noundef 1)
  br label %.loopexit

.preheader62.split:                               ; preds = %.preheader62, %43
  %.1 = phi ptr [ %44, %43 ], [ %1, %.preheader62 ]
  %35 = load i8, ptr %.1, align 1, !tbaa !14
  switch i8 %35, label %42 [
    i8 0, label %.loopexit
    i8 38, label %36
    i8 60, label %37
    i8 62, label %38
    i8 39, label %39
    i8 34, label %41
  ]

36:                                               ; preds = %.preheader62.split
  tail call void (ptr, ptr, ...) @av_bprintf(ptr noundef %0, ptr noundef nonnull @.str, ptr noundef nonnull @.str.2)
  br label %43

37:                                               ; preds = %.preheader62.split
  tail call void (ptr, ptr, ...) @av_bprintf(ptr noundef %0, ptr noundef nonnull @.str, ptr noundef nonnull @.str.3)
  br label %43

38:                                               ; preds = %.preheader62.split
  tail call void (ptr, ptr, ...) @av_bprintf(ptr noundef %0, ptr noundef nonnull @.str, ptr noundef nonnull @.str.4)
  br label %43

39:                                               ; preds = %.preheader62.split
  br i1 %.not48, label %42, label %40

40:                                               ; preds = %39
  tail call void (ptr, ptr, ...) @av_bprintf(ptr noundef %0, ptr noundef nonnull @.str, ptr noundef nonnull @.str.5)
  br label %43

41:                                               ; preds = %.preheader62.split
  tail call void (ptr, ptr, ...) @av_bprintf(ptr noundef %0, ptr noundef nonnull @.str, ptr noundef nonnull @.str.6)
  br label %43

42:                                               ; preds = %.preheader62.split, %39
  tail call void @av_bprint_chars(ptr noundef %0, i8 noundef signext %35, i32 noundef 1)
  br label %43

43:                                               ; preds = %36, %37, %38, %40, %41, %42
  %44 = getelementptr inbounds nuw i8, ptr %.1, i64 1
  br label %.preheader62.split, !llvm.loop !17

45:                                               ; preds = %.lr.ph, %62
  %46 = phi i8 [ %23, %.lr.ph ], [ %65, %62 ]
  %.265 = phi ptr [ %1, %.lr.ph ], [ %64, %62 ]
  %47 = icmp eq ptr %.265, %1
  br i1 %47, label %51, label %48

48:                                               ; preds = %45
  %49 = getelementptr inbounds nuw i8, ptr %.265, i64 1
  %50 = load i8, ptr %49, align 1, !tbaa !14
  %.not51 = icmp eq i8 %50, 0
  br label %51

51:                                               ; preds = %48, %45
  %52 = phi i1 [ true, %45 ], [ %.not51, %48 ]
  %53 = sext i8 %46 to i32
  %54 = and i32 %53, 255
  %55 = zext nneg i32 %54 to i64
  %memchr.bounds = icmp samesign ult i32 %54, 64
  %56 = shl nuw i64 1, %55
  %57 = and i64 %56, 4294977025
  %memchr.bits = icmp ne i64 %57, 0
  %memchr52 = select i1 %memchr.bounds, i1 %memchr.bits, i1 false
  br i1 %.not53, label %.thread, label %58

58:                                               ; preds = %51
  %59 = tail call ptr @strchr(ptr noundef nonnull dereferenceable(1) %2, i32 noundef %53) #13
  %.not = icmp eq ptr %59, null
  br i1 %.not, label %.thread, label %61

.thread:                                          ; preds = %51, %58
  %switch.selectcmp.case1 = icmp eq i8 %46, 39
  %switch.selectcmp.case2 = icmp eq i8 %46, 92
  %switch.selectcmp = or i1 %switch.selectcmp.case1, %switch.selectcmp.case2
  %60 = and i1 %25, %memchr52
  %spec.select = select i1 %switch.selectcmp, i1 true, i1 %60
  %or.cond = select i1 %memchr52, i1 %52, i1 false
  %or.cond56 = select i1 %spec.select, i1 true, i1 %or.cond
  %or.cond57 = select i1 %.not55, i1 %or.cond56, i1 false
  br i1 %or.cond57, label %61, label %62

61:                                               ; preds = %58, %.thread
  tail call void @av_bprint_chars(ptr noundef %0, i8 noundef signext 92, i32 noundef 1)
  %.pre = load i8, ptr %.265, align 1, !tbaa !14
  br label %62

62:                                               ; preds = %61, %.thread
  %63 = phi i8 [ %.pre, %61 ], [ %46, %.thread ]
  tail call void @av_bprint_chars(ptr noundef %0, i8 noundef signext %63, i32 noundef 1)
  %64 = getelementptr inbounds nuw i8, ptr %.265, i64 1
  %65 = load i8, ptr %64, align 1, !tbaa !14
  %.not50 = icmp eq i8 %65, 0
  br i1 %.not50, label %.loopexit, label %45, !llvm.loop !20

.loopexit:                                        ; preds = %.preheader62.split, %.preheader62.split.us.split, %.preheader62.split.us.split.us, %62, %.preheader, %34
  ret void
}